; Function Attrs: nounwind uwtable
define range(i32 0, 2) i32 @Gia_ManCheckTopoOrder(ptr noundef %0) local_unnamed_addr #0 {
  tail call void @Gia_ManFillValue(ptr noundef %0) #31
  %2 = getelementptr i8, ptr %0, i64 32
  %.val23 = load ptr, ptr %2, align 8, !tbaa !36
  %.val23.fr = freeze ptr %.val23
  %3 = getelementptr inbounds nuw i8, ptr %.val23.fr, i64 8
  store i32 0, ptr %3, align 4, !tbaa !37
  %4 = getelementptr inbounds nuw i8, ptr %0, i64 64
  %5 = load ptr, ptr %4, align 8, !tbaa !44
  %6 = getelementptr i8, ptr %5, i64 4
  %.val22 = load i32, ptr %6, align 4, !tbaa !31
  %.not = icmp eq ptr %.val23.fr, null
  %7 = icmp slt i32 %.val22, 1
  %or.cond28 = or i1 %.not, %7
  br i1 %or.cond28, label %.critedge.preheader, label %.lr.ph.split.preheader

.lr.ph.split.preheader:                           ; preds = %1
  %8 = getelementptr i8, ptr %5, i64 8
  %.val25.val = load ptr, ptr %8, align 8, !tbaa !8
  %wide.trip.count = zext nneg i32 %.val22 to i64
  br label %.lr.ph.split

.critedge.preheader:                              ; preds = %.lr.ph.split, %1
  %9 = getelementptr inbounds nuw i8, ptr %0, i64 72
  %10 = load ptr, ptr %9, align 8, !tbaa !47
  %11 = getelementptr i8, ptr %10, i64 4
  %.val30 = load i32, ptr %11, align 4, !tbaa !31
  %12 = icmp sgt i32 %.val30, 0
  br i1 %12, label %.lr.ph33, label %.critedge2

.lr.ph.split:                                     ; preds = %.lr.ph.split.preheader, %.lr.ph.split
  %indvars.iv = phi i64 [ 0, %.lr.ph.split.preheader ], [ %indvars.iv.next, %.lr.ph.split ]
  %13 = getelementptr inbounds nuw i32, ptr %.val25.val, i64 %indvars.iv
  %14 = load i32, ptr %13, align 4, !tbaa !32
  %15 = sext i32 %14 to i64
  %16 = getelementptr inbounds %struct.Gia_Obj_t_, ptr %.val23.fr, i64 %15, i32 1
  store i32 0, ptr %16, align 4, !tbaa !37
  %indvars.iv.next = add nuw nsw i64 %indvars.iv, 1
  %exitcond.not = icmp eq i64 %indvars.iv.next, %wide.trip.count
  br i1 %exitcond.not, label %.critedge.preheader, label %.lr.ph.split, !llvm.loop !63

.lr.ph33:                                         ; preds = %.critedge.preheader, %.critedge
  %indvars.iv37 = phi i64 [ %indvars.iv.next38, %.critedge ], [ 0, %.critedge.preheader ]
  %17 = phi ptr [ %29, %.critedge ], [ %10, %.critedge.preheader ]
  %.032 = phi i32 [ %28, %.critedge ], [ 1, %.critedge.preheader ]
  %.val26 = load ptr, ptr %2, align 8, !tbaa !36
  %.not21 = icmp eq ptr %.val26, null
  br i1 %.not21, label %.critedge2, label %.critedge

.critedge:                                        ; preds = %.lr.ph33
  %18 = getelementptr i8, ptr %17, i64 8
  %.val27.val = load ptr, ptr %18, align 8, !tbaa !8
  %19 = getelementptr inbounds nuw i32, ptr %.val27.val, i64 %indvars.iv37
  %20 = load i32, ptr %19, align 4, !tbaa !32
  %21 = sext i32 %20 to i64
  %22 = getelementptr inbounds %struct.Gia_Obj_t_, ptr %.val26, i64 %21
  %23 = load i64, ptr %22, align 4
  %24 = and i64 %23, 536870911
  %25 = sub nsw i64 0, %24
  %26 = getelementptr inbounds %struct.Gia_Obj_t_, ptr %22, i64 %25
  %27 = tail call i32 @Gia_ManCheckTopoOrder_rec(ptr noundef nonnull %0, ptr noundef nonnull %26)
  %28 = and i32 %27, %.032
  %indvars.iv.next38 = add nuw nsw i64 %indvars.iv37, 1
  %29 = load ptr, ptr %9, align 8, !tbaa !47
  %30 = getelementptr i8, ptr %29, i64 4
  %.val = load i32, ptr %30, align 4, !tbaa !31
  %31 = sext i32 %.val to i64
  %32 = icmp slt i64 %indvars.iv.next38, %31
  br i1 %32, label %.lr.ph33, label %.critedge2, !llvm.loop !64

.critedge2:                                       ; preds = %.lr.ph33, %.critedge, %.critedge.preheader
  %.0.lcssa = phi i32 [ 1, %.critedge.preheader ], [ %28, %.critedge ], [ %.032, %.lr.ph33 ]
  ret i32 %.0.lcssa
}